; ModuleID = 'source-C-CXX/24/892.cpp'
source_filename = "source-C-CXX/24/892.cpp"
target datalayout = "e-m:e-p270:32:32-p271:32:32-p272:64:64-i64:64-f80:128-n8:16:32:64-S128"
target triple = "x86_64-pc-linux-gnu"

%"class.std::ios_base::Init" = type { i8 }
%"class.std::basic_istream" = type { i32 (...)**, i64, %"class.std::basic_ios" }
%"class.std::basic_ios" = type { %"class.std::ios_base", %"class.std::basic_ostream"*, i8, i8, %"class.std::basic_streambuf"*, %"class.std::ctype"*, %"class.std::num_put"*, %"class.std::num_get"* }
%"class.std::ios_base" = type { i32 (...)**, i64, i64, i32, i32, i32, %"struct.std::ios_base::_Callback_list"*, %"struct.std::ios_base::_Words", [8 x %"struct.std::ios_base::_Words"], i32, %"struct.std::ios_base::_Words"*, %"class.std::locale" }
%"struct.std::ios_base::_Callback_list" = type { %"struct.std::ios_base::_Callback_list"*, void (i32, %"class.std::ios_base"*, i32)*, i32, i32 }
%"struct.std::ios_base::_Words" = type { i8*, i64 }
%"class.std::locale" = type { %"class.std::locale::_Impl"* }
%"class.std::locale::_Impl" = type { i32, %"class.std::locale::facet"**, i64, %"class.std::locale::facet"**, i8** }
%"class.std::locale::facet" = type <{ i32 (...)**, i32, [4 x i8] }>
%"class.std::basic_ostream" = type { i32 (...)**, %"class.std::basic_ios" }
%"class.std::basic_streambuf" = type { i32 (...)**, i8*, i8*, i8*, i8*, i8*, i8*, %"class.std::locale" }
%"class.std::ctype" = type <{ %"class.std::locale::facet.base", [4 x i8], %struct.__locale_struct*, i8, [7 x i8], i32*, i32*, i16*, i8, [256 x i8], [256 x i8], i8, [6 x i8] }>
%"class.std::locale::facet.base" = type <{ i32 (...)**, i32 }>
%struct.__locale_struct = type { [13 x %struct.__locale_data*], i16*, i32*, i32*, [13 x i8*] }
%struct.__locale_data = type opaque
%"class.std::num_put" = type { %"class.std::locale::facet.base", [4 x i8] }
%"class.std::num_get" = type { %"class.std::locale::facet.base", [4 x i8] }

@_ZStL8__ioinit = internal global %"class.std::ios_base::Init" zeroinitializer, align 1
@__dso_handle = external hidden global i8
@_ZSt3cin = external global %"class.std::basic_istream", align 8
@_ZSt4cout = external global %"class.std::basic_ostream", align 8
@llvm.global_ctors = appending global [1 x { i32, void ()*, i8* }] [{ i32, void ()*, i8* } { i32 65535, void ()* @_GLOBAL__sub_I_892.cpp, i8* null }]

declare void @_ZNSt8ios_base4InitC1Ev(%"class.std::ios_base::Init"* nonnull align 1 dereferenceable(1)) unnamed_addr #0

; Function Attrs: nounwind
declare void @_ZNSt8ios_base4InitD1Ev(%"class.std::ios_base::Init"* nonnull align 1 dereferenceable(1)) unnamed_addr #1

; Function Attrs: nofree nounwind
declare i32 @__cxa_atexit(void (i8*)*, i8*, i8*) local_unnamed_addr #2

; Function Attrs: mustprogress norecurse sspstrong uwtable
define dso_local i32 @main() local_unnamed_addr #3 {
  %1 = alloca i32, align 4
  %2 = alloca [100 x double], align 16
  %3 = bitcast i32* %1 to i8*
  call void @llvm.lifetime.start.p0i8(i64 4, i8* nonnull %3) #8
  %4 = call nonnull align 8 dereferenceable(16) %"class.std::basic_istream"* @_ZNSirsERi(%"class.std::basic_istream"* nonnull align 8 dereferenceable(16) @_ZSt3cin, i32* nonnull align 4 dereferenceable(4) %1)
  %5 = bitcast [100 x double]* %2 to i8*
  call void @llvm.lifetime.start.p0i8(i64 800, i8* nonnull %5) #8
  %6 = getelementptr inbounds [100 x double], [100 x double]* %2, i64 0, i64 2
  %7 = bitcast double* %6 to i8*
  call void @llvm.memset.p0i8.i64(i8* noundef nonnull align 16 dereferenceable(800) %7, i8 0, i64 784, i1 false)
  %8 = getelementptr inbounds [100 x double], [100 x double]* %2, i64 0, i64 1
  %9 = bitcast [100 x double]* %2 to <2 x double>*
  store <2 x double> <double 1.000000e+00, double -1.000000e+00>, <2 x double>* %9, align 16
  %10 = load i32, i32* %1, align 4, !tbaa !5
  %11 = icmp slt i32 %10, 1
  br i1 %11, label %12, label %13

12:                                               ; preds = %50, %0
  br label %55

13:                                               ; preds = %0, %52
  %14 = phi double [ %54, %52 ], [ -1.000000e+00, %0 ]
  %15 = phi i32 [ %53, %52 ], [ 1, %0 ]
  %16 = fcmp ult double %14, -5.000000e-01
  br i1 %16, label %37, label %17

17:                                               ; preds = %13, %29
  %18 = phi i64 [ %34, %29 ], [ 0, %13 ]
  %19 = phi i64 [ %30, %29 ], [ 1, %13 ]
  %20 = phi double [ %32, %29 ], [ %14, %13 ]
  %21 = phi double* [ %31, %29 ], [ %8, %13 ]
  %22 = getelementptr inbounds [100 x double], [100 x double]* %2, i64 0, i64 %18
  %23 = load double, double* %22, align 8, !tbaa !9
  %24 = fmul double %23, 2.000000e+00
  store double %24, double* %22, align 8, !tbaa !9
  %25 = fcmp ogt double %24, 9.000000e+00
  br i1 %25, label %26, label %29

26:                                               ; preds = %17
  %27 = fadd double %20, 5.000000e-01
  store double %27, double* %21, align 8, !tbaa !9
  %28 = fadd double %24, -1.000000e+01
  store double %28, double* %22, align 8, !tbaa !9
  br label %29

29:                                               ; preds = %26, %17
  %30 = add nuw i64 %19, 1
  %31 = getelementptr inbounds [100 x double], [100 x double]* %2, i64 0, i64 %30
  %32 = load double, double* %31, align 8, !tbaa !9
  %33 = fcmp ult double %32, -5.000000e-01
  %34 = add nuw nsw i64 %18, 1
  br i1 %33, label %35, label %17, !llvm.loop !11

35:                                               ; preds = %29
  %36 = trunc i64 %19 to i32
  br label %37

37:                                               ; preds = %35, %13
  %38 = phi i32 [ 0, %13 ], [ %36, %35 ]
  %39 = phi double* [ %8, %13 ], [ %31, %35 ]
  %40 = zext i32 %38 to i64
  %41 = getelementptr inbounds [100 x double], [100 x double]* %2, i64 0, i64 %40
  %42 = load double, double* %41, align 8, !tbaa !9
  %43 = fmul double %42, 2.000000e+00
  store double %43, double* %41, align 8, !tbaa !9
  %44 = fcmp ogt double %43, 9.000000e+00
  br i1 %44, label %45, label %50

45:                                               ; preds = %37
  %46 = add nuw nsw i32 %38, 2
  %47 = zext i32 %46 to i64
  %48 = getelementptr inbounds [100 x double], [100 x double]* %2, i64 0, i64 %47
  store double -1.000000e+00, double* %48, align 8, !tbaa !9
  store double 1.000000e+00, double* %39, align 8, !tbaa !9
  %49 = fadd double %43, -1.000000e+01
  store double %49, double* %41, align 8, !tbaa !9
  br label %50

50:                                               ; preds = %45, %37
  %51 = icmp eq i32 %15, %10
  br i1 %51, label %12, label %52, !llvm.loop !13

52:                                               ; preds = %50
  %53 = add nuw i32 %15, 1
  %54 = load double, double* %8, align 8, !tbaa !9
  br label %13

55:                                               ; preds = %12, %55
  %56 = phi i64 [ %57, %55 ], [ 0, %12 ]
  %57 = add nuw nsw i64 %56, 1
  %58 = getelementptr inbounds [100 x double], [100 x double]* %2, i64 0, i64 %57
  %59 = load double, double* %58, align 8, !tbaa !9
  %60 = fcmp ult double %59, -5.000000e-01
  br i1 %60, label %61, label %55, !llvm.loop !14

61:                                               ; preds = %55
  %62 = and i64 %56, 4294967295
  br label %63

63:                                               ; preds = %61, %63
  %64 = phi i64 [ %62, %61 ], [ %70, %63 ]
  %65 = getelementptr inbounds [100 x double], [100 x double]* %2, i64 0, i64 %64
  %66 = load double, double* %65, align 8, !tbaa !9
  %67 = call nonnull align 8 dereferenceable(8) %"class.std::basic_ostream"* @_ZNSo9_M_insertIdEERSoT_(%"class.std::basic_ostream"* nonnull align 8 dereferenceable(8) @_ZSt4cout, double %66)
  %68 = trunc i64 %64 to i32
  %69 = icmp sgt i32 %68, 0
  %70 = add nsw i64 %64, -1
  br i1 %69, label %63, label %71, !llvm.loop !15

71:                                               ; preds = %63
  %72 = load i8*, i8** bitcast (%"class.std::basic_ostream"* @_ZSt4cout to i8**), align 8, !tbaa !16
  %73 = getelementptr i8, i8* %72, i64 -24
  %74 = bitcast i8* %73 to i64*
  %75 = load i64, i64* %74, align 8
  %76 = add nsw i64 %75, 240
  %77 = getelementptr inbounds i8, i8* bitcast (%"class.std::basic_ostream"* @_ZSt4cout to i8*), i64 %76
  %78 = bitcast i8* %77 to %"class.std::ctype"**
  %79 = load %"class.std::ctype"*, %"class.std::ctype"** %78, align 8, !tbaa !18
  %80 = icmp eq %"class.std::ctype"* %79, null
  br i1 %80, label %81, label %82

81:                                               ; preds = %71
  call void @_ZSt16__throw_bad_castv() #9
  unreachable

82:                                               ; preds = %71
  %83 = getelementptr inbounds %"class.std::ctype", %"class.std::ctype"* %79, i64 0, i32 8
  %84 = load i8, i8* %83, align 8, !tbaa !22
  %85 = icmp eq i8 %84, 0
  br i1 %85, label %89, label %86

86:                                               ; preds = %82
  %87 = getelementptr inbounds %"class.std::ctype", %"class.std::ctype"* %79, i64 0, i32 9, i64 10
  %88 = load i8, i8* %87, align 1, !tbaa !24
  br label %95

89:                                               ; preds = %82
  call void @_ZNKSt5ctypeIcE13_M_widen_initEv(%"class.std::ctype"* nonnull align 8 dereferenceable(570) %79)
  %90 = bitcast %"class.std::ctype"* %79 to i8 (%"class.std::ctype"*, i8)***
  %91 = load i8 (%"class.std::ctype"*, i8)**, i8 (%"class.std::ctype"*, i8)*** %90, align 8, !tbaa !16
  %92 = getelementptr inbounds i8 (%"class.std::ctype"*, i8)*, i8 (%"class.std::ctype"*, i8)** %91, i64 6
  %93 = load i8 (%"class.std::ctype"*, i8)*, i8 (%"class.std::ctype"*, i8)** %92, align 8
  %94 = call signext i8 %93(%"class.std::ctype"* nonnull align 8 dereferenceable(570) %79, i8 signext 10)
  br label %95

95:                                               ; preds = %86, %89
  %96 = phi i8 [ %88, %86 ], [ %94, %89 ]
  %97 = call nonnull align 8 dereferenceable(8) %"class.std::basic_ostream"* @_ZNSo3putEc(%"class.std::basic_ostream"* nonnull align 8 dereferenceable(8) @_ZSt4cout, i8 signext %96)
  %98 = call nonnull align 8 dereferenceable(8) %"class.std::basic_ostream"* @_ZNSo5flushEv(%"class.std::basic_ostream"* nonnull align 8 dereferenceable(8) %97)
  call void @llvm.lifetime.end.p0i8(i64 800, i8* nonnull %5) #8
  call void @llvm.lifetime.end.p0i8(i64 4, i8* nonnull %3) #8
  ret i32 0
}

; Function Attrs: argmemonly mustprogress nofree nosync nounwind willreturn
declare void @llvm.lifetime.start.p0i8(i64 immarg, i8* nocapture) #4

declare nonnull align 8 dereferenceable(16) %"class.std::basic_istream"* @_ZNSirsERi(%"class.std::basic_istream"* nonnull align 8 dereferenceable(16), i32* nonnull align 4 dereferenceable(4)) local_unnamed_addr #0

; Function Attrs: argmemonly mustprogress nofree nounwind willreturn writeonly
declare void @llvm.memset.p0i8.i64(i8* nocapture writeonly, i8, i64, i1 immarg) #5

; Function Attrs: argmemonly mustprogress nofree nosync nounwind willreturn
declare void @llvm.lifetime.end.p0i8(i64 immarg, i8* nocapture) #4

declare nonnull align 8 dereferenceable(8) %"class.std::basic_ostream"* @_ZNSo9_M_insertIdEERSoT_(%"class.std::basic_ostream"* nonnull align 8 dereferenceable(8), double) local_unnamed_addr #0

declare nonnull align 8 dereferenceable(8) %"class.std::basic_ostream"* @_ZNSo3putEc(%"class.std::basic_ostream"* nonnull align 8 dereferenceable(8), i8 signext) local_unnamed_addr #0

declare nonnull align 8 dereferenceable(8) %"class.std::basic_ostream"* @_ZNSo5flushEv(%"class.std::basic_ostream"* nonnull align 8 dereferenceable(8)) local_unnamed_addr #0

; Function Attrs: noreturn
declare void @_ZSt16__throw_bad_castv() local_unnamed_addr #6

declare void @_ZNKSt5ctypeIcE13_M_widen_initEv(%"class.std::ctype"* nonnull align 8 dereferenceable(570)) local_unnamed_addr #0

; Function Attrs: sspstrong uwtable
define internal void @_GLOBAL__sub_I_892.cpp() #7 section ".text.startup" {
  tail call void @_ZNSt8ios_base4InitC1Ev(%"class.std::ios_base::Init"* nonnull align 1 dereferenceable(1) @_ZStL8__ioinit)
  %1 = tail call i32 @__cxa_atexit(void (i8*)* bitcast (void (%"class.std::ios_base::Init"*)* @_ZNSt8ios_base4InitD1Ev to void (i8*)*), i8* getelementptr inbounds (%"class.std::ios_base::Init", %"class.std::ios_base::Init"* @_ZStL8__ioinit, i64 0, i32 0), i8* nonnull @__dso_handle) #8
  ret void
}


!llvm.module.flags = !{!0, !1, !2, !3}
!llvm.ident = !{!4}

!0 = !{i32 1, !"wchar_size", i32 4}
!1 = !{i32 7, !"PIC Level", i32 2}
!2 = !{i32 7, !"PIE Level", i32 2}
!3 = !{i32 7, !"uwtable", i32 1}
!4 = !{!"clang version 13.0.0"}
!5 = !{!6, !6, i64 0}
!6 = !{!"int", !7, i64 0}
!7 = !{!"omnipotent char", !8, i64 0}
!8 = !{!"Simple C++ TBAA"}
!9 = !{!10, !10, i64 0}
!10 = !{!"double", !7, i64 0}
!11 = distinct !{!11, !12}
!12 = !{!"llvm.loop.mustprogress"}
!13 = distinct !{!13, !12}
!14 = distinct !{!14, !12}
!15 = distinct !{!15, !12}
!16 = !{!17, !17, i64 0}
!17 = !{!"vtable pointer", !8, i64 0}
!18 = !{!19, !20, i64 240}
!19 = !{!"_ZTSSt9basic_iosIcSt11char_traitsIcEE", !20, i64 216, !7, i64 224, !21, i64 225, !20, i64 232, !20, i64 240, !20, i64 248, !20, i64 256}
!20 = !{!"any pointer", !7, i64 0}
!21 = !{!"bool", !7, i64 0}
!22 = !{!23, !7, i64 56}
!23 = !{!"_ZTSSt5ctypeIcE", !20, i64 16, !21, i64 24, !20, i64 32, !20, i64 40, !20, i64 48, !7, i64 56, !7, i64 57, !7, i64 313, !7, i64 569}
!24 = !{!7, !7, i64 0}
